Certificate:
    Data:
        Version: 3 (0x2)
        Serial Number: 2 (0x2)
        Signature Algorithm: sha256WithRSAEncryption
        Issuer: C=US, ST=CA, L=SanFrancisco, O=Fort-Funston, OU=MyOrganizationalUnit, CN=Fort-Funston CA/name=EasyRSA/emailAddress=me@myhost.mydomain
        Validity
            Not Before: Nov 30 15:26:19 2020 GMT
            Not After : Nov 28 15:26:19 2030 GMT
        Subject: C=US, ST=CA, L=SanFrancisco, O=Fort-Funston, OU=MyOrganizationalUnit, CN=client1/name=EasyRSA/emailAddress=me@myhost.mydomain
        Subject Public Key Info:
            Public Key Algorithm: rsaEncryption
                RSA Public-Key: (2048 bit)
                Modulus:
                    00:eb:32:a0:6f:6c:24:98:4f:07:e7:f2:7e:06:0d:
                    a1:1d:d1:a5:4d:43:96:7b:67:5c:23:44:e8:b7:e7:
                    60:86:f5:b3:9e:b1:11:50:bb:a9:e3:cd:aa:12:f5:
                    ca:99:da:0f:22:1e:87:b5:1c:02:24:26:71:bb:76:
                    2e:63:c5:fa:a5:26:fb:25:8e:e1:f2:d8:73:8d:c2:
                    71:04:6e:ce:c0:46:51:e7:06:85:bf:cf:19:55:4c:
                    43:d4:7b:f2:b0:40:a3:55:58:63:40:63:cc:81:a4:
                    29:f2:8f:44:54:98:a7:0b:62:d5:0c:d4:f5:91:fa:
                    ee:4c:1a:05:ca:a6:b8:2d:02:0d:de:15:6c:be:95:
                    27:fe:b1:5a:29:10:e3:c8:20:07:a3:8e:5e:d2:4a:
                    41:74:dc:fd:46:ac:da:93:5b:d5:27:cb:33:f0:78:
                    9d:1d:96:aa:77:ab:a0:4c:cb:69:c8:a0:8e:a1:a9:
                    61:b1:ef:bc:98:67:e7:6f:8f:7e:cd:27:c3:53:45:
                    80:cd:23:67:fb:46:de:58:c3:c4:42:72:72:ff:23:
                    cc:a8:90:37:f5:e0:f0:ca:19:af:14:d1:f5:ba:d8:
                    1b:91:28:f2:ce:a3:05:80:1c:b7:5c:97:27:ef:e7:
                    7b:d7:c9:4b:94:51:7a:82:39:61:d5:ed:4c:6e:7c:
                    b2:6b
                Exponent: 65537 (0x10001)
        X509v3 extensions:
            X509v3 Basic Constraints: 
                CA:FALSE
            Netscape Comment: 
                Easy-RSA Generated Certificate
            X509v3 Subject Key Identifier: 
                D7:83:1B:2C:AF:D3:B2:24:92:CD:09:AE:73:6E:56:26:F6:88:73:54
            X509v3 Authority Key Identifier: 
                keyid:24:CB:34:2C:42:57:B7:85:15:9C:65:F7:92:AC:2A:9D:61:6C:E4:E1
                DirName:/C=US/ST=CA/L=SanFrancisco/O=Fort-Funston/OU=MyOrganizationalUnit/CN=Fort-Funston CA/name=EasyRSA/emailAddress=me@myhost.mydomain
                serial:3F:2F:62:D2:40:80:68:85:3B:0B:FD:A3:D9:68:A8:CF:8C:94:02:8A

            X509v3 Extended Key Usage: 
                TLS Web Client Authentication
            X509v3 Key Usage: 
                Digital Signature
    Signature Algorithm: sha256WithRSAEncryption
         20:14:a6:81:c0:17:fc:21:fd:03:a9:0d:34:be:f5:7c:e5:d9:
         e9:ad:f4:49:ec:26:54:22:74:a5:c1:cc:1b:96:58:20:42:9c:
         42:ff:ea:4c:7f:29:64:86:51:28:02:26:b3:28:03:b4:60:2d:
         7f:e7:71:fb:99:35:20:f0:5f:8e:7d:c3:78:90:a0:7a:19:dc:
         e2:e3:d9:7e:42:4c:a4:65:2f:5f:34:fa:c0:39:bd:2f:48:eb:
         27:65:02:52:c5:48:87:ee:6a:92:6c:01:8e:de:0c:db:f9:b6:
         53:6c:33:9b:b4:3b:b0:44:53:c4:df:dc:f3:a7:7b:32:f6:d0:
         b6:c9:0d:0d:5d:a6:63:dc:0e:d2:55:fc:d9:42:57:41:e3:86:
         a0:c1:36:62:a1:27:7a:55:55:c6:18:27:6a:4a:6a:cd:52:ed:
         1b:bc:a5:4e:30:8f:cb:a7:f0:1a:c3:a6:14:98:48:81:09:1a:
         f9:85:7a:79:52:2d:1d:ac:be:c3:c1:eb:18:d6:99:c4:62:ef:
         cd:c1:bb:7e:cb:f8:01:71:19:0e:10:e9:7c:65:21:46:fd:11:
         e2:29:43:62:40:ab:99:1a:a1:c0:7b:48:44:3b:62:55:8c:a9:
         9a:03:5c:6a:72:cd:5d:31:c8:19:e2:52:f7:ae:25:14:b5:1c:
         8d:8a:59:e5
-----BEGIN CERTIFICATE-----
MIIFWzCCBEOgAwIBAgIBAjANBgkqhkiG9w0BAQsFADCBtjELMAkGA1UEBhMCVVMx
CzAJBgNVBAgTAkNBMRUwEwYDVQQHEwxTYW5GcmFuY2lzY28xFTATBgNVBAoTDEZv
cnQtRnVuc3RvbjEdMBsGA1UECxMUTXlPcmdhbml6YXRpb25hbFVuaXQxGDAWBgNV
BAMTD0ZvcnQtRnVuc3RvbiBDQTEQMA4GA1UEKRMHRWFzeVJTQTEhMB8GCSqGSIb3
DQEJARYSbWVAbXlob3N0Lm15ZG9tYWluMB4XDTIwMTEzMDE1MjYxOVoXDTMwMTEy
ODE1MjYxOVowga4xCzAJBgNVBAYTAlVTMQswCQYDVQQIEwJDQTEVMBMGA1UEBxMM
U2FuRnJhbmNpc2NvMRUwEwYDVQQKEwxGb3J0LUZ1bnN0b24xHTAbBgNVBAsTFE15
T3JnYW5pemF0aW9uYWxVbml0MRAwDgYDVQQDEwdjbGllbnQxMRAwDgYDVQQpEwdF
YXN5UlNBMSEwHwYJKoZIhvcNAQkBFhJtZUBteWhvc3QubXlkb21haW4wggEiMA0G
CSqGSIb3DQEBAQUAA4IBDwAwggEKAoIBAQDrMqBvbCSYTwfn8n4GDaEd0aVNQ5Z7
Z1wjROi352CG9bOesRFQu6njzaoS9cqZ2g8iHoe1HAIkJnG7di5jxfqlJvsljuHy
2HONwnEEbs7ARlHnBoW/zxlVTEPUe/KwQKNVWGNAY8yBpCnyj0RUmKcLYtUM1PWR
+u5MGgXKprgtAg3eFWy+lSf+sVopEOPIIAejjl7SSkF03P1GrNqTW9UnyzPweJ0d
lqp3q6BMy2nIoI6hqWGx77yYZ+dvj37NJ8NTRYDNI2f7Rt5Yw8RCcnL/I8yokDf1
4PDKGa8U0fW62BuRKPLOowWAHLdclyfv53vXyUuUUXqCOWHV7UxufLJrAgMBAAGj
ggF4MIIBdDAJBgNVHRMEAjAAMC0GCWCGSAGG+EIBDQQgFh5FYXN5LVJTQSBHZW5l
cmF0ZWQgQ2VydGlmaWNhdGUwHQYDVR0OBBYEFNeDGyyv07Ikks0JrnNuVib2iHNU
MIH2BgNVHSMEge4wgeuAFCTLNCxCV7eFFZxl95KsKp1hbOThoYG8pIG5MIG2MQsw
CQYDVQQGEwJVUzELMAkGA1UECBMCQ0ExFTATBgNVBAcTDFNhbkZyYW5jaXNjbzEV
MBMGA1UEChMMRm9ydC1GdW5zdG9uMR0wGwYDVQQLExRNeU9yZ2FuaXphdGlvbmFs
VW5pdDEYMBYGA1UEAxMPRm9ydC1GdW5zdG9uIENBMRAwDgYDVQQpEwdFYXN5UlNB
MSEwHwYJKoZIhvcNAQkBFhJtZUBteWhvc3QubXlkb21haW6CFD8vYtJAgGiFOwv9
o9loqM+MlAKKMBMGA1UdJQQMMAoGCCsGAQUFBwMCMAsGA1UdDwQEAwIHgDANBgkq
hkiG9w0BAQsFAAOCAQEAIBSmgcAX/CH9A6kNNL71fOXZ6a30SewmVCJ0pcHMG5ZY
IEKcQv/qTH8pZIZRKAImsygDtGAtf+dx+5k1IPBfjn3DeJCgehnc4uPZfkJMpGUv
XzT6wDm9L0jrJ2UCUsVIh+5qkmwBjt4M2/m2U2wzm7Q7sERTxN/c86d7MvbQtskN
DV2mY9wO0lX82UJXQeOGoME2YqEnelVVxhgnakpqzVLtG7ylTjCPy6fwGsOmFJhI
gQka+YV6eVItHay+w8HrGNaZxGLvzcG7fsv4AXEZDhDpfGUhRv0R4ilDYkCrmRqh
wHtIRDtiVYypmgNcanLNXTHIGeJS964lFLUcjYpZ5Q==
-----END CERTIFICATE-----
